#include <math.h>
#include <stdio.h>
#include <stdlib.h>
#include <string.h>

int main()
{
	int n,m,o,p,q,A[100][100],i,j,s;
	scanf("%d",&n);
	for(i=0;i<n;i++)
	{
		A[0][i]=255;
		A[i][0]=255;
	}

	for(i=1;i<=n;i++)
	{
		for(j=1;j<=n;j++)
		{
			scanf("%d",&A[i][j]);
		}
	}


	for(i=0;i<=n+1;i++)
	{
		A[n+1][i]=255;
		A[i][n+1]=255;
	}
	
	for(i=1;i<=n;i++)
	{
		for(j=1;j<=n;j++)
		{
			if(A[i-1][j]==255&&A[i][j-1]==255&&A[i+1][j]==0&&A[i][j+1]==0&&A[i][j]==0)
			{
				m=i;
				o=j;
			}
			if(A[i-1][j]==0&&A[i][j-1]==0&&A[i+1][j]==255&&A[i][j+1]==255&&A[i][j]==0)
			{
				p=i;
				q=j;
			}

		}
	}
	s=(p-m-1)*(q-o-1);
	printf("%d",s);
	return 0;
}

